; Function Attrs: mustprogress nounwind willreturn uwtable
define dso_local void @psql_scan_reset(ptr noundef captures(none) initializes((72, 76), (80, 88), (96, 100), (104, 108)) %0) local_unnamed_addr #6 {
  %2 = getelementptr inbounds nuw i8, ptr %0, i64 72
  store i32 0, ptr %2, align 8
  %3 = getelementptr inbounds nuw i8, ptr %0, i64 80
  store i32 0, ptr %3, align 8
  %4 = getelementptr inbounds nuw i8, ptr %0, i64 84
  store i32 0, ptr %4, align 4
  %5 = getelementptr inbounds nuw i8, ptr %0, i64 88
  %6 = load ptr, ptr %5, align 8
  %.not = icmp eq ptr %6, null
  br i1 %.not, label %8, label %7

7:                                                ; preds = %1
  tail call void @free(ptr noundef nonnull %6) #27
  br label %8

8:                                                ; preds = %7, %1
  store ptr null, ptr %5, align 8
  %9 = getelementptr inbounds nuw i8, ptr %0, i64 96
  store i32 0, ptr %9, align 8
  %10 = getelementptr inbounds nuw i8, ptr %0, i64 104
  store i32 0, ptr %10, align 8
  ret void
}